; Function Attrs: null_pointer_is_valid sspstrong uwtable
define internal fastcc noundef i32 @dissect_diropres(ptr noundef %0, ptr noundef %1, ptr noundef %2, ptr noundef %3, ptr noundef readonly captures(none) %4) unnamed_addr #0 {
  %6 = alloca i32, align 4
  %7 = alloca i32, align 4
  call void @llvm.lifetime.start.p0(i64 4, ptr nonnull %7) #22
  call void @llvm.lifetime.start.p0(i64 4, ptr nonnull %6) #22
  %8 = load i32, ptr @hf_nfs2_status, align 4
  %9 = call ptr @proto_tree_add_item_ret_uint(ptr noundef %2, i32 noundef %8, ptr noundef %0, i32 noundef 0, i32 noundef 4, i32 noundef 0, ptr noundef nonnull %6)
  %10 = load i32, ptr @hf_nfs_status, align 4
  %11 = load i32, ptr %6, align 4
  %12 = call ptr @proto_tree_add_uint(ptr noundef %2, i32 noundef %10, ptr noundef %0, i32 noundef 0, i32 noundef 4, i32 noundef %11)
  %.not.i.i = icmp eq ptr %12, null
  br i1 %.not.i.i, label %dissect_nfs2_status.exit, label %13

13:                                               ; preds = %5
  %14 = getelementptr inbounds nuw i8, ptr %12, i64 40
  %15 = load ptr, ptr %14, align 8
  %.not5.i.i = icmp eq ptr %15, null
  br i1 %.not5.i.i, label %dissect_nfs2_status.exit, label %16

16:                                               ; preds = %13
  %17 = getelementptr inbounds nuw i8, ptr %15, i64 28
  %18 = load i32, ptr %17, align 4
  %19 = or i32 %18, 1
  store i32 %19, ptr %17, align 4
  br label %dissect_nfs2_status.exit

dissect_nfs2_status.exit:                         ; preds = %5, %13, %16
  %20 = load i32, ptr %6, align 4
  call void @llvm.lifetime.end.p0(i64 4, ptr nonnull %6) #22
  %cond = icmp eq i32 %20, 0
  br i1 %cond, label %21, label %28

21:                                               ; preds = %dissect_nfs2_status.exit
  %22 = call i32 @dissect_fhandle(ptr noundef %0, i32 noundef 4, ptr noundef %1, ptr noundef %2, ptr noundef nonnull @.str.2244, ptr noundef nonnull %7, ptr noundef %4)
  %23 = call i32 @dissect_nfs2_fattr(ptr noundef %0, i32 noundef %22, ptr noundef %2, ptr noundef nonnull @.str)
  %24 = getelementptr inbounds nuw i8, ptr %1, i64 8
  %25 = load ptr, ptr %24, align 8
  %26 = load i32, ptr %7, align 4
  call void (ptr, i32, ptr, ...) @col_append_fstr(ptr noundef %25, i32 noundef 25, ptr noundef nonnull @.str.2238, i32 noundef %26)
  %27 = load i32, ptr %7, align 4
  call void (ptr, ptr, ...) @proto_item_append_text(ptr noundef %2, ptr noundef nonnull @.str.2250, ptr noundef %3, i32 noundef %27)
  br label %32

28:                                               ; preds = %dissect_nfs2_status.exit
  %29 = call ptr @val_to_str_ext(i32 noundef %20, ptr noundef nonnull @names_nfs2_stat_ext, ptr noundef nonnull @.str.2241)
  %30 = getelementptr inbounds nuw i8, ptr %1, i64 8
  %31 = load ptr, ptr %30, align 8
  call void (ptr, i32, ptr, ...) @col_append_fstr(ptr noundef %31, i32 noundef 25, ptr noundef nonnull @.str.2242, ptr noundef %29)
  call void (ptr, ptr, ...) @proto_item_append_text(ptr noundef %2, ptr noundef nonnull @.str.2243, ptr noundef %3, ptr noundef %29)
  br label %32

32:                                               ; preds = %28, %21
  %.0 = phi i32 [ %23, %21 ], [ 4, %28 ]
  call void @llvm.lifetime.end.p0(i64 4, ptr nonnull %7) #22
  ret i32 %.0
}